; Function Attrs: nounwind uwtable
define dso_local i64 @pg_indexam_progress_phasename(ptr noundef captures(none) %0) local_unnamed_addr #0 {
  %2 = getelementptr inbounds nuw i8, ptr %0, i64 32
  %3 = load i64, ptr %2, align 8
  %4 = trunc i64 %3 to i32
  %5 = getelementptr inbounds nuw i8, ptr %0, i64 48
  %6 = load i64, ptr %5, align 8
  %7 = tail call ptr @GetIndexAmRoutineByAmId(i32 noundef %4, i1 noundef zeroext true) #3
  %8 = icmp eq ptr %7, null
  br i1 %8, label %12, label %9

9:                                                ; preds = %1
  %10 = getelementptr inbounds nuw i8, ptr %7, i64 120
  %11 = load ptr, ptr %10, align 8
  %.not = icmp eq ptr %11, null
  br i1 %.not, label %12, label %14

12:                                               ; preds = %1, %9
  %13 = getelementptr inbounds nuw i8, ptr %0, i64 28
  store i8 1, ptr %13, align 4
  br label %22

14:                                               ; preds = %9
  %sext = shl i64 %6, 32
  %15 = ashr exact i64 %sext, 32
  %16 = tail call ptr %11(i64 noundef %15) #3
  %.not14 = icmp eq ptr %16, null
  br i1 %.not14, label %17, label %19

17:                                               ; preds = %14
  %18 = getelementptr inbounds nuw i8, ptr %0, i64 28
  store i8 1, ptr %18, align 4
  br label %22

19:                                               ; preds = %14
  %20 = tail call ptr @cstring_to_text(ptr noundef nonnull %16) #3
  %21 = ptrtoint ptr %20 to i64
  br label %22

22:                                               ; preds = %19, %17, %12
  %.0 = phi i64 [ 0, %12 ], [ %21, %19 ], [ 0, %17 ]
  ret i64 %.0
}